target datalayout = "e-m:e-p270:32:32-p271:32:32-p272:64:64-i64:64-i128:128-f80:128-n8:16:32:64-S128"
target triple = "x86_64-pc-linux-gnu"

%struct._zval_struct = type { %union._zend_value, %union.anon.0, %union.anon.3 }
%union._zend_value = type { i64 }
%union.anon.0 = type { i32 }
%union.anon.3 = type { i32 }
%struct._zend_refcounted_h = type { i32, %union.anon }
%union.anon = type { i32 }
%struct._zend_string = type { %struct._zend_refcounted_h, i64, i64, [1 x i8] }
%struct._zend_execute_data = type { ptr, ptr, ptr, ptr, %struct._zval_struct, ptr, ptr, ptr, ptr }

@date_ce_timezone = hidden global ptr null, align 8
@.str.57 = private unnamed_addr constant [3 x i8] c"%s\00", align 1

; Function Attrs: nounwind uwtable
define internal ptr @php_timezone_obj_from_obj(ptr noundef %0) #0 {
  %2 = alloca ptr, align 8
  store ptr %0, ptr %2, align 8
  %3 = load ptr, ptr %2, align 8
  %4 = getelementptr inbounds i8, ptr %3, i64 -32
  ret ptr %4
}

; Function Attrs: nounwind uwtable
define ptr @php_date_instantiate(ptr noundef %0, ptr noundef %1) #0 {
  %3 = alloca ptr, align 8
  %4 = alloca ptr, align 8
  store ptr %0, ptr %3, align 8
  store ptr %1, ptr %4, align 8
  %5 = load ptr, ptr %4, align 8
  %6 = load ptr, ptr %3, align 8
  %7 = call i32 @object_init_ex(ptr noundef %5, ptr noundef %6)
  %8 = load ptr, ptr %4, align 8
  ret ptr %8
}

; Function Attrs: nounwind uwtable
define hidden void @zif_timezone_open(ptr noundef %0, ptr noundef %1) #0 {
  %3 = alloca ptr, align 8
  %4 = alloca i64, align 8
  %5 = alloca ptr, align 8
  %6 = alloca ptr, align 8
  %7 = alloca i1, align 1
  %8 = alloca ptr, align 8
  %9 = alloca ptr, align 8
  %10 = alloca i8, align 1
  %11 = alloca i32, align 4
  %12 = alloca i8, align 1
  %13 = alloca ptr, align 8
  %14 = alloca ptr, align 8
  %15 = alloca i8, align 1
  %16 = alloca i32, align 4
  %17 = alloca i1, align 1
  %18 = alloca ptr, align 8
  %19 = alloca ptr, align 8
  %20 = alloca i8, align 1
  %21 = alloca i32, align 4
  %22 = alloca ptr, align 8
  %23 = alloca ptr, align 8
  %24 = alloca ptr, align 8
  %25 = alloca ptr, align 8
  %26 = alloca ptr, align 8
  %27 = alloca i32, align 4
  %28 = alloca i32, align 4
  %29 = alloca i32, align 4
  %30 = alloca i32, align 4
  %31 = alloca i32, align 4
  %32 = alloca ptr, align 8
  %33 = alloca ptr, align 8
  %34 = alloca i32, align 4
  %35 = alloca ptr, align 8
  %36 = alloca i8, align 1
  %37 = alloca i8, align 1
  %38 = alloca i32, align 4
  store ptr %0, ptr %22, align 8
  store ptr %1, ptr %23, align 8
  br label %39

39:                                               ; preds = %2
  store i32 0, ptr %27, align 4
  store i32 1, ptr %28, align 4
  store i32 1, ptr %29, align 4
  %40 = load ptr, ptr %22, align 8
  %41 = getelementptr inbounds %struct._zend_execute_data, ptr %40, i32 0, i32 4
  %42 = getelementptr inbounds %struct._zval_struct, ptr %41, i32 0, i32 2
  %43 = load i32, ptr %42, align 4
  store i32 %43, ptr %30, align 4
  store i32 0, ptr %31, align 4
  store ptr null, ptr %33, align 8
  store i32 0, ptr %34, align 4
  store ptr null, ptr %35, align 8
  store i8 0, ptr %36, align 1
  store i8 0, ptr %37, align 1
  store i32 0, ptr %38, align 4
  br label %44

44:                                               ; preds = %39
  %45 = load i32, ptr %30, align 4
  %46 = load i32, ptr %28, align 4
  %47 = icmp ult i32 %45, %46
  %48 = xor i1 %47, true
  %49 = xor i1 %48, true
  %50 = zext i1 %49 to i32
  %51 = sext i32 %50 to i64
  %52 = icmp ne i64 %51, 0
  br i1 %52, label %62, label %53

53:                                               ; preds = %44
  %54 = load i32, ptr %30, align 4
  %55 = load i32, ptr %29, align 4
  %56 = icmp ugt i32 %54, %55
  %57 = xor i1 %56, true
  %58 = xor i1 %57, true
  %59 = zext i1 %58 to i32
  %60 = sext i32 %59 to i64
  %61 = icmp ne i64 %60, 0
  br i1 %61, label %62, label %65

62:                                               ; preds = %53, %44
  %63 = load i32, ptr %28, align 4
  %64 = load i32, ptr %29, align 4
  call void @zend_wrong_parameters_count_error(i32 noundef %63, i32 noundef %64)
  store i32 1, ptr %38, align 4
  br label %195

65:                                               ; preds = %53
  %66 = load ptr, ptr %22, align 8
  %67 = getelementptr inbounds %struct._zval_struct, ptr %66, i64 4
  store ptr %67, ptr %32, align 8
  %68 = load i32, ptr %31, align 4
  %69 = add i32 %68, 1
  store i32 %69, ptr %31, align 4
  %70 = load i32, ptr %31, align 4
  %71 = load i32, ptr %28, align 4
  %72 = icmp ule i32 %70, %71
  br i1 %72, label %78, label %73

73:                                               ; preds = %65
  %74 = load i8, ptr %37, align 1
  %75 = trunc i8 %74 to i1
  %76 = zext i1 %75 to i32
  %77 = icmp eq i32 %76, 1
  br label %78

78:                                               ; preds = %73, %65
  %79 = phi i1 [ true, %65 ], [ %77, %73 ]
  call void @llvm.assume(i1 %79)
  %80 = load i32, ptr %31, align 4
  %81 = load i32, ptr %28, align 4
  %82 = icmp ugt i32 %80, %81
  br i1 %82, label %88, label %83

83:                                               ; preds = %78
  %84 = load i8, ptr %37, align 1
  %85 = trunc i8 %84 to i1
  %86 = zext i1 %85 to i32
  %87 = icmp eq i32 %86, 0
  br label %88

88:                                               ; preds = %83, %78
  %89 = phi i1 [ true, %78 ], [ %87, %83 ]
  call void @llvm.assume(i1 %89)
  %90 = load i8, ptr %37, align 1
  %91 = trunc i8 %90 to i1
  br i1 %91, label %92, label %103

92:                                               ; preds = %88
  %93 = load i32, ptr %31, align 4
  %94 = load i32, ptr %30, align 4
  %95 = icmp ugt i32 %93, %94
  %96 = xor i1 %95, true
  %97 = xor i1 %96, true
  %98 = zext i1 %97 to i32
  %99 = sext i32 %98 to i64
  %100 = icmp ne i64 %99, 0
  br i1 %100, label %101, label %102

101:                                              ; preds = %92
  br label %195

102:                                              ; preds = %92
  br label %103

103:                                              ; preds = %102, %88
  %104 = load ptr, ptr %32, align 8
  %105 = getelementptr inbounds %struct._zval_struct, ptr %104, i32 1
  store ptr %105, ptr %32, align 8
  %106 = load ptr, ptr %32, align 8
  store ptr %106, ptr %33, align 8
  %107 = load ptr, ptr %33, align 8
  %108 = load i32, ptr %31, align 4
  store ptr %107, ptr %18, align 8
  store ptr %24, ptr %19, align 8
  store i8 0, ptr %20, align 1
  store i32 %108, ptr %21, align 4
  %109 = load ptr, ptr %18, align 8
  %110 = load ptr, ptr %19, align 8
  %111 = load i8, ptr %20, align 1
  %112 = trunc i8 %111 to i1
  %113 = load i32, ptr %21, align 4
  store ptr %109, ptr %13, align 8
  store ptr %110, ptr %14, align 8
  %114 = zext i1 %112 to i8
  store i8 %114, ptr %15, align 1
  store i32 %113, ptr %16, align 4
  %115 = load ptr, ptr %13, align 8
  %116 = load ptr, ptr %14, align 8
  %117 = load i8, ptr %15, align 1
  %118 = trunc i8 %117 to i1
  %119 = load i32, ptr %16, align 4
  store ptr %115, ptr %8, align 8
  store ptr %116, ptr %9, align 8
  %120 = zext i1 %118 to i8
  store i8 %120, ptr %10, align 1
  store i32 %119, ptr %11, align 4
  store i8 0, ptr %12, align 1
  %121 = load ptr, ptr %8, align 8
  store ptr %121, ptr %5, align 8
  %122 = load ptr, ptr %5, align 8
  %123 = getelementptr inbounds %struct._zval_struct, ptr %122, i32 0, i32 1
  %124 = load i8, ptr %123, align 8
  %125 = zext i8 %124 to i32
  %126 = icmp eq i32 %125, 6
  br i1 %126, label %127, label %131

127:                                              ; preds = %103
  %128 = load ptr, ptr %8, align 8
  %129 = load ptr, ptr %128, align 8
  %130 = load ptr, ptr %9, align 8
  store ptr %129, ptr %130, align 8
  br label %156

131:                                              ; preds = %103
  %132 = load i8, ptr %10, align 1
  %133 = trunc i8 %132 to i1
  br i1 %133, label %134, label %143

134:                                              ; preds = %131
  %135 = load ptr, ptr %8, align 8
  store ptr %135, ptr %6, align 8
  %136 = load ptr, ptr %6, align 8
  %137 = getelementptr inbounds %struct._zval_struct, ptr %136, i32 0, i32 1
  %138 = load i8, ptr %137, align 8
  %139 = zext i8 %138 to i32
  %140 = icmp eq i32 %139, 1
  br i1 %140, label %141, label %143

141:                                              ; preds = %134
  %142 = load ptr, ptr %9, align 8
  store ptr null, ptr %142, align 8
  br label %156

143:                                              ; preds = %134, %131
  %144 = load i8, ptr %12, align 1
  %145 = trunc i8 %144 to i1
  br i1 %145, label %146, label %151

146:                                              ; preds = %143
  %147 = load ptr, ptr %8, align 8
  %148 = load ptr, ptr %9, align 8
  %149 = load i32, ptr %11, align 4
  %150 = call zeroext i1 @zend_flf_parse_arg_str_slow(ptr noundef %147, ptr noundef %148, i32 noundef %149) #13
  store i1 %150, ptr %7, align 1
  br label %157

151:                                              ; preds = %143
  %152 = load ptr, ptr %8, align 8
  %153 = load ptr, ptr %9, align 8
  %154 = load i32, ptr %11, align 4
  %155 = call zeroext i1 @zend_parse_arg_str_slow(ptr noundef %152, ptr noundef %153, i32 noundef %154) #13
  store i1 %155, ptr %7, align 1
  br label %157

156:                                              ; preds = %141, %127
  store i1 true, ptr %7, align 1
  br label %157

157:                                              ; preds = %156, %151, %146
  %158 = load i1, ptr %7, align 1
  br i1 %158, label %159, label %175

159:                                              ; preds = %157
  %160 = load ptr, ptr %19, align 8
  %161 = load ptr, ptr %160, align 8
  %162 = icmp ne ptr %161, null
  br i1 %162, label %163, label %176

163:                                              ; preds = %159
  %164 = load ptr, ptr %19, align 8
  %165 = load ptr, ptr %164, align 8
  %166 = getelementptr inbounds %struct._zend_string, ptr %165, i32 0, i32 3
  %167 = load ptr, ptr %19, align 8
  %168 = load ptr, ptr %167, align 8
  %169 = getelementptr inbounds %struct._zend_string, ptr %168, i32 0, i32 2
  %170 = load i64, ptr %169, align 8
  store ptr %166, ptr %3, align 8
  store i64 %170, ptr %4, align 8
  %171 = load i64, ptr %4, align 8
  %172 = load ptr, ptr %3, align 8
  %173 = call i64 @strlen(ptr noundef %172) #14
  %174 = icmp ne i64 %171, %173
  br i1 %174, label %175, label %176

175:                                              ; preds = %163, %157
  store i1 false, ptr %17, align 1
  br label %177

176:                                              ; preds = %163, %159
  store i1 true, ptr %17, align 1
  br label %177

177:                                              ; preds = %176, %175
  %178 = load i1, ptr %17, align 1
  %179 = xor i1 %178, true
  %180 = xor i1 %179, true
  %181 = xor i1 %180, true
  %182 = zext i1 %181 to i32
  %183 = sext i32 %182 to i64
  %184 = icmp ne i64 %183, 0
  br i1 %184, label %185, label %186

185:                                              ; preds = %177
  store i32 16, ptr %34, align 4
  store i32 9, ptr %38, align 4
  br label %195

186:                                              ; preds = %177
  %187 = load i32, ptr %31, align 4
  %188 = load i32, ptr %29, align 4
  %189 = icmp eq i32 %187, %188
  br i1 %189, label %193, label %190

190:                                              ; preds = %186
  %191 = load i32, ptr %29, align 4
  %192 = icmp eq i32 %191, -1
  br label %193

193:                                              ; preds = %190, %186
  %194 = phi i1 [ true, %186 ], [ %192, %190 ]
  call void @llvm.assume(i1 %194)
  br label %195

195:                                              ; preds = %193, %185, %101, %62
  %196 = load i32, ptr %38, align 4
  %197 = icmp ne i32 %196, 0
  %198 = xor i1 %197, true
  %199 = xor i1 %198, true
  %200 = zext i1 %199 to i32
  %201 = sext i32 %200 to i64
  %202 = icmp ne i64 %201, 0
  br i1 %202, label %203, label %209

203:                                              ; preds = %195
  %204 = load i32, ptr %38, align 4
  %205 = load i32, ptr %31, align 4
  %206 = load ptr, ptr %35, align 8
  %207 = load i32, ptr %34, align 4
  %208 = load ptr, ptr %33, align 8
  call void @zend_wrong_parameter_error(i32 noundef %204, i32 noundef %205, ptr noundef %206, i32 noundef %207, ptr noundef %208)
  br label %235

209:                                              ; preds = %195
  br label %210

210:                                              ; preds = %209
  %211 = load ptr, ptr @date_ce_timezone, align 8
  %212 = load ptr, ptr %23, align 8
  %213 = call ptr @php_date_instantiate(ptr noundef %211, ptr noundef %212)
  %214 = getelementptr inbounds %struct._zval_struct, ptr %213, i32 0, i32 0
  %215 = load ptr, ptr %214, align 8
  %216 = call ptr @php_timezone_obj_from_obj(ptr noundef %215)
  store ptr %216, ptr %25, align 8
  %217 = load ptr, ptr %25, align 8
  %218 = load ptr, ptr %24, align 8
  %219 = getelementptr inbounds %struct._zend_string, ptr %218, i32 0, i32 3
  %220 = getelementptr inbounds [1 x i8], ptr %219, i64 0, i64 0
  %221 = load ptr, ptr %24, align 8
  %222 = getelementptr inbounds %struct._zend_string, ptr %221, i32 0, i32 2
  %223 = load i64, ptr %222, align 8
  %224 = call zeroext i1 @timezone_initialize(ptr noundef %217, ptr noundef %220, i64 noundef %223, ptr noundef %26)
  br i1 %224, label %235, label %225

225:                                              ; preds = %210
  %226 = load ptr, ptr %26, align 8
  call void (ptr, i32, ptr, ...) @php_error_docref(ptr noundef null, i32 noundef 2, ptr noundef @.str.57, ptr noundef %226)
  %227 = load ptr, ptr %26, align 8
  call void @_efree(ptr noundef %227)
  %228 = load ptr, ptr %23, align 8
  call void @zval_ptr_dtor(ptr noundef %228)
  br label %229

229:                                              ; preds = %225
  br label %230

230:                                              ; preds = %229
  %231 = load ptr, ptr %23, align 8
  %232 = getelementptr inbounds %struct._zval_struct, ptr %231, i32 0, i32 1
  store i32 2, ptr %232, align 8
  br label %233

233:                                              ; preds = %230
  br label %235

234:                                              ; No predecessors!
  br label %235

235:                                              ; preds = %234, %233, %210, %203
  ret void
}