; Function Attrs: nounwind uwtable
define hidden void @zif_timezone_open(ptr noundef %0, ptr noundef %1) #0 {
  %3 = alloca ptr, align 8
  %4 = alloca ptr, align 8
  %5 = getelementptr inbounds i8, ptr %0, i64 44
  %6 = load i32, ptr %5, align 4
  %cond = icmp eq i32 %6, 1
  br i1 %cond, label %8, label %7

7:                                                ; preds = %2
  tail call void @zend_wrong_parameters_count_error(i32 noundef 1, i32 noundef 1) #25
  br label %23

8:                                                ; preds = %2
  %9 = getelementptr inbounds i8, ptr %0, i64 80
  %10 = getelementptr inbounds i8, ptr %0, i64 88
  %11 = load i8, ptr %10, align 8
  %12 = icmp eq i8 %11, 6
  br i1 %12, label %.critedge, label %14

.critedge:                                        ; preds = %8
  %13 = load ptr, ptr %9, align 8
  store ptr %13, ptr %3, align 8
  br label %16

14:                                               ; preds = %8
  %15 = call zeroext i1 @zend_parse_arg_str_slow(ptr noundef nonnull %9, ptr noundef nonnull %3, i32 noundef 1) #25
  br i1 %15, label %thread-pre-split, label %23

thread-pre-split:                                 ; preds = %14
  %.pr = load ptr, ptr %3, align 8
  br label %16

16:                                               ; preds = %thread-pre-split, %.critedge
  %17 = phi ptr [ %.pr, %thread-pre-split ], [ %13, %.critedge ]
  %.not72 = icmp eq ptr %17, null
  br i1 %.not72, label %24, label %18

18:                                               ; preds = %16
  %19 = getelementptr inbounds i8, ptr %17, i64 24
  %20 = getelementptr inbounds i8, ptr %17, i64 16
  %21 = load i64, ptr %20, align 8
  %22 = call i64 @strlen(ptr noundef nonnull dereferenceable(1) %19) #27
  %.not73 = icmp eq i64 %21, %22
  br i1 %.not73, label %24, label %23

23:                                               ; preds = %14, %18, %7
  %.068 = phi ptr [ null, %7 ], [ %9, %18 ], [ %9, %14 ]
  %.067 = phi i32 [ 0, %7 ], [ 16, %18 ], [ 16, %14 ]
  %.066 = phi i32 [ 0, %7 ], [ 1, %18 ], [ 1, %14 ]
  %.0 = phi i32 [ 1, %7 ], [ 9, %18 ], [ 9, %14 ]
  call void @zend_wrong_parameter_error(i32 noundef %.0, i32 noundef %.066, ptr noundef null, i32 noundef %.067, ptr noundef %.068) #25
  br label %38

24:                                               ; preds = %16, %18
  %25 = load ptr, ptr @date_ce_timezone, align 8
  %26 = call i32 @object_init_ex(ptr noundef %1, ptr noundef %25) #25
  %27 = load ptr, ptr %1, align 8
  %28 = getelementptr inbounds i8, ptr %27, i64 -32
  %29 = load ptr, ptr %3, align 8
  %30 = getelementptr inbounds i8, ptr %29, i64 24
  %31 = getelementptr inbounds i8, ptr %29, i64 16
  %32 = load i64, ptr %31, align 8
  %33 = call fastcc zeroext i1 @timezone_initialize(ptr noundef nonnull %28, ptr noundef nonnull %30, i64 noundef %32, ptr noundef nonnull %4)
  br i1 %33, label %38, label %34

34:                                               ; preds = %24
  %35 = load ptr, ptr %4, align 8
  call void (ptr, i32, ptr, ...) @php_error_docref(ptr noundef null, i32 noundef 2, ptr noundef nonnull @.str.57, ptr noundef %35) #25
  %36 = load ptr, ptr %4, align 8
  call void @_efree(ptr noundef %36) #25
  call void @zval_ptr_dtor(ptr noundef nonnull %1) #25
  %37 = getelementptr inbounds i8, ptr %1, i64 8
  store i32 2, ptr %37, align 8
  br label %38

38:                                               ; preds = %34, %24, %23
  ret void
}